Certificate:
    Data:
        Version: 3 (0x2)
        Serial Number: 1 (0x1)
        Signature Algorithm: sha256WithRSAEncryption
        Issuer: C=US, O=Google, OU=Enterprise, CN=Single Root CA
        Validity
            Not Before: Dec 27 17:38:02 2023 GMT
            Not After : Dec 26 17:38:02 2033 GMT
        Subject: C=US, O=Google, OU=Enterprise, CN=Single Root CA
        Subject Public Key Info:
            Public Key Algorithm: rsaEncryption
                Public-Key: (2048 bit)
                Modulus:
                    00:bd:4e:4b:a5:b0:44:c4:8a:e0:82:cf:f2:e2:30:
                    02:08:9b:c3:31:82:29:7c:49:91:24:a9:eb:f3:6e:
                    2e:f8:97:51:6d:b2:54:be:8e:e9:18:18:e4:24:6f:
                    4e:9e:7c:82:c3:d1:1b:0a:7c:f1:6f:90:37:3a:5c:
                    26:ff:4a:2b:72:53:dc:7a:22:8f:e5:ab:14:13:e9:
                    44:be:03:60:3a:d0:dd:e5:95:61:40:84:5b:e7:19:
                    01:5f:c6:87:5d:47:fa:e2:0a:6e:bd:9d:7b:b1:88:
                    ac:8f:a3:8f:97:b7:6d:57:03:a3:6c:bf:7b:25:1e:
                    f0:ba:09:c2:47:7e:0a:eb:b8:c3:9f:e7:87:c9:a1:
                    4b:0f:70:ca:75:0b:ee:b3:8e:a3:9a:92:f6:18:65:
                    5a:e0:37:8c:ef:48:bb:cd:45:35:85:11:19:dc:d8:
                    f1:6f:8d:a5:d7:ef:48:15:9f:1a:47:fa:16:dd:77:
                    29:69:06:6d:1e:d9:1d:4f:86:61:df:6b:b8:91:f1:
                    43:b6:80:e4:65:20:66:90:aa:d1:4d:a6:3d:39:7c:
                    a2:19:8e:16:a7:61:a2:f2:18:4b:13:25:ee:1b:72:
                    38:b9:8f:3c:50:ad:cd:88:fa:dc:08:a5:67:8e:0f:
                    8a:c8:66:8d:13:50:24:c3:1f:a8:c7:a9:56:7f:c3:
                    15:3f
                Exponent: 65537 (0x10001)
        X509v3 extensions:
            X509v3 Key Usage: critical
                Certificate Sign, CRL Sign
            X509v3 Basic Constraints: critical
                CA:TRUE
            X509v3 Subject Key Identifier: 
                EC:F0:EA:53:53:3F:9F:23:DC:C1:0E:31:10:37:07:DE:DE:E7:6E:F3
            X509v3 Authority Key Identifier: 
                EC:F0:EA:53:53:3F:9F:23:DC:C1:0E:31:10:37:07:DE:DE:E7:6E:F3
    Signature Algorithm: sha256WithRSAEncryption
    Signature Value:
        77:aa:56:03:04:39:86:fc:c8:69:8b:c3:02:ae:87:43:e9:af:
        66:60:fd:f0:df:98:3e:f3:f1:ea:bb:8e:1a:40:ce:18:d2:b4:
        28:93:e4:4d:1c:15:14:89:23:85:10:7f:cf:f6:37:b4:64:c8:
        8e:57:67:41:2e:08:0f:19:87:e6:7a:8a:4a:e6:93:92:96:53:
        27:19:21:24:38:c7:2f:43:67:be:a4:85:3c:e4:b0:10:d7:14:
        76:48:e8:81:e0:ba:7a:26:c4:f3:1d:ba:61:bd:cd:96:4e:9d:
        f6:b6:e5:ad:6a:79:c0:89:01:a9:1e:9b:54:95:97:6e:fb:99:
        17:84:7f:b6:a0:05:a1:0b:41:a6:c8:d3:a4:08:f6:d6:ff:6f:
        1e:94:87:d0:c3:4b:da:8a:4a:aa:42:a8:60:2c:55:25:b1:62:
        bc:a3:54:0e:de:4a:36:07:78:ed:2a:ed:d0:e2:d8:45:45:f3:
        4e:4f:1c:3f:a5:5d:59:bf:5e:66:f4:f6:77:1b:87:90:c0:78:
        94:aa:a8:1b:83:6d:0f:f9:83:32:5b:18:78:1b:99:46:61:64:
        46:61:80:bd:d8:3d:6a:e5:6f:cf:37:c6:bf:32:c9:a0:6e:f4:
        95:4e:de:07:35:af:2e:d5:1f:9d:6c:fb:b4:59:db:90:bb:b9:
        44:43:40:92
-----BEGIN CERTIFICATE-----
MIIDdjCCAl6gAwIBAgIBATANBgkqhkiG9w0BAQsFADBMMQswCQYDVQQGEwJVUzEP
MA0GA1UECgwGR29vZ2xlMRMwEQYDVQQLDApFbnRlcnByaXNlMRcwFQYDVQQDDA5T
aW5nbGUgUm9vdCBDQTAeFw0yMzEyMjcxNzM4MDJaFw0zMzEyMjYxNzM4MDJaMEwx
CzAJBgNVBAYTAlVTMQ8wDQYDVQQKDAZHb29nbGUxEzARBgNVBAsMCkVudGVycHJp
c2UxFzAVBgNVBAMMDlNpbmdsZSBSb290IENBMIIBIjANBgkqhkiG9w0BAQEFAAOC
AQ8AMIIBCgKCAQEAvU5LpbBExIrggs/y4jACCJvDMYIpfEmRJKnr824u+JdRbbJU
vo7pGBjkJG9OnnyCw9EbCnzxb5A3Olwm/0orclPceiKP5asUE+lEvgNgOtDd5ZVh
QIRb5xkBX8aHXUf64gpuvZ17sYisj6OPl7dtVwOjbL97JR7wugnCR34K67jDn+eH
yaFLD3DKdQvus46jmpL2GGVa4DeM70i7zUU1hREZ3Njxb42l1+9IFZ8aR/oW3Xcp
aQZtHtkdT4Zh32u4kfFDtoDkZSBmkKrRTaY9OXyiGY4Wp2Gi8hhLEyXuG3I4uY88
UK3NiPrcCKVnjg+KyGaNE1Akwx+ox6lWf8MVPwIDAQABo2MwYTAOBgNVHQ8BAf8E
BAMCAQYwDwYDVR0TAQH/BAUwAwEB/zAdBgNVHQ4EFgQU7PDqU1M/nyPcwQ4xEDcH
3t7nbvMwHwYDVR0jBBgwFoAU7PDqU1M/nyPcwQ4xEDcH3t7nbvMwDQYJKoZIhvcN
AQELBQADggEBAHeqVgMEOYb8yGmLwwKuh0Ppr2Zg/fDfmD7z8eq7jhpAzhjStCiT
5E0cFRSJI4UQf8/2N7RkyI5XZ0EuCA8Zh+Z6ikrmk5KWUycZISQ4xy9DZ76khTzk
sBDXFHZI6IHgunomxPMdumG9zZZOnfa25a1qecCJAakem1SVl277mReEf7agBaEL
QabI06QI9tb/bx6Uh9DDS9qKSqpCqGAsVSWxYryjVA7eSjYHeO0q7dDi2EVF805P
HD+lXVm/Xmb09ncbh5DAeJSqqBuDbQ/5gzJbGHgbmUZhZEZhgL3YPWrlb883xr8y
yaBu9JVO3gc1ry7VH51s+7RZ25C7uURDQJI=
-----END CERTIFICATE-----
