Certificate:
    Data:
        Version: 3 (0x2)
        Serial Number: 4 (0x4)
        Signature Algorithm: sha256WithRSAEncryption
        Issuer: C=US, O=Google, OU=Enterprise, CN=Single Root CA
        Validity
            Not Before: Mar 28 11:28:48 2024 GMT
            Not After : Mar 28 11:28:48 2034 GMT
        Subject: C=US, O=Google, OU=Enterprise, CN=server.domain.com
        Subject Public Key Info:
            Public Key Algorithm: rsaEncryption
                Public-Key: (2048 bit)
                Modulus:
                    00:d0:6f:18:74:a9:86:8a:f6:77:59:66:6a:96:51:
                    be:f6:db:15:99:2b:98:a1:9c:b1:b1:72:b3:c5:16:
                    96:d7:ba:b1:68:95:e8:2d:06:62:8e:a5:cf:36:35:
                    a3:a3:89:35:66:bc:13:45:c4:b2:38:7b:d4:e3:e2:
                    df:e1:87:76:38:dd:2f:75:c5:42:78:03:7b:5e:0b:
                    2f:4a:78:6d:24:a6:4e:0c:9f:0f:b9:61:a4:b3:b8:
                    44:a7:5b:24:b7:da:12:93:8f:57:8f:e0:d8:c0:a0:
                    9d:23:6c:fe:fb:f5:33:b0:1d:fa:73:7d:a5:68:1b:
                    a9:f7:f5:67:8d:df:35:27:d9:d8:fb:fd:2a:5c:9b:
                    34:35:33:cf:e0:70:34:13:63:78:7f:1c:81:8b:5f:
                    09:98:7c:d5:6d:54:b0:5d:2c:35:38:5f:c7:c5:cb:
                    97:ee:2a:45:61:15:33:0e:b7:14:33:0e:17:45:5d:
                    85:3d:6e:40:23:40:e4:54:0a:67:dc:58:49:f8:bc:
                    a1:52:e3:29:9c:2a:ef:81:31:30:fb:83:6b:1c:3b:
                    07:ac:01:14:fd:3e:94:9b:02:af:0a:96:a6:33:29:
                    c9:f3:9f:4d:29:67:96:3b:90:e5:a8:b9:01:15:30:
                    3f:5e:f1:95:96:d2:b7:8a:b1:58:6e:6e:b6:80:92:
                    7a:81
                Exponent: 65537 (0x10001)
        X509v3 extensions:
            X509v3 Key Usage: critical
                Digital Signature
            X509v3 Basic Constraints: 
                CA:FALSE
            X509v3 Extended Key Usage: 
                TLS Web Server Authentication
            X509v3 Subject Key Identifier: 
                78:B6:75:2D:C2:30:C5:26:E5:46:D2:8B:6B:CB:B7:0E:70:90:6C:54
            X509v3 Authority Key Identifier: 
                EC:F0:EA:53:53:3F:9F:23:DC:C1:0E:31:10:37:07:DE:DE:E7:6E:F3
            Authority Information Access: 
                CA Issuers - URI:http://pki.esodemoapp2.com/ca/root-ca.cer
            X509v3 CRL Distribution Points: 
                Full Name:
                  URI:http://pki.esodemoapp2.com/ca/root-ca.crl
            X509v3 Subject Alternative Name: 
                DNS:server.domain.com, DNS:grpc.domain.com, DNS:be-srv, DNS:be-srv.default.svc.cluster.local, DNS:be-srv-lb, DNS:be-srv-lb.default.svc.cluster.local, DNS:grpc.domain.com, DNS:grpcweb.domain.com, IP Address:127.0.0.1
    Signature Algorithm: sha256WithRSAEncryption
    Signature Value:
        58:82:23:5b:b1:33:7e:be:a9:61:4b:0a:a1:7f:43:80:1c:a6:
        ca:7a:c2:98:f7:38:67:20:a4:05:60:9a:fb:b7:ca:73:70:98:
        fb:28:92:49:e8:b5:f5:a5:f8:e8:9d:5e:5b:d9:5e:b2:b6:d3:
        fe:4a:4c:56:69:e1:42:61:e4:8d:91:6e:6d:f1:f4:29:11:c5:
        c2:96:48:d4:62:2e:34:6e:eb:b8:33:4e:1d:05:9b:97:c9:fb:
        8b:de:f4:41:d1:66:06:10:5f:a7:08:12:2d:6a:45:53:39:a5:
        b1:34:8d:bd:10:61:5d:77:1c:77:22:e1:54:d5:ee:8f:99:b6:
        56:98:dc:9a:69:56:a8:c0:e2:7e:9b:d7:92:9e:f8:f0:9d:2e:
        07:32:ac:fa:28:2e:58:5a:83:2a:7c:df:f9:e4:51:be:c4:ac:
        d7:d8:3a:52:72:de:44:48:bc:05:32:b3:f2:7f:78:09:d3:f7:
        c5:d3:bd:25:c1:44:34:b5:62:5d:cc:a0:29:c2:b6:e6:db:d0:
        89:30:42:ee:53:04:bc:e8:96:97:d6:61:77:bf:dd:d2:11:15:
        b5:32:b3:46:18:5f:5a:bd:ea:78:37:43:c9:7a:f6:04:07:4c:
        bb:5e:3d:38:00:a5:2e:8c:c3:26:cd:55:95:2b:24:ff:21:c3:
        a7:30:33:1b
-----BEGIN CERTIFICATE-----
MIIExjCCA66gAwIBAgIBBDANBgkqhkiG9w0BAQsFADBMMQswCQYDVQQGEwJVUzEP
MA0GA1UECgwGR29vZ2xlMRMwEQYDVQQLDApFbnRlcnByaXNlMRcwFQYDVQQDDA5T
aW5nbGUgUm9vdCBDQTAeFw0yNDAzMjgxMTI4NDhaFw0zNDAzMjgxMTI4NDhaME8x
CzAJBgNVBAYTAlVTMQ8wDQYDVQQKDAZHb29nbGUxEzARBgNVBAsMCkVudGVycHJp
c2UxGjAYBgNVBAMMEXNlcnZlci5kb21haW4uY29tMIIBIjANBgkqhkiG9w0BAQEF
AAOCAQ8AMIIBCgKCAQEA0G8YdKmGivZ3WWZqllG+9tsVmSuYoZyxsXKzxRaW17qx
aJXoLQZijqXPNjWjo4k1ZrwTRcSyOHvU4+Lf4Yd2ON0vdcVCeAN7XgsvSnhtJKZO
DJ8PuWGks7hEp1skt9oSk49Xj+DYwKCdI2z++/UzsB36c32laBup9/Vnjd81J9nY
+/0qXJs0NTPP4HA0E2N4fxyBi18JmHzVbVSwXSw1OF/HxcuX7ipFYRUzDrcUMw4X
RV2FPW5AI0DkVApn3FhJ+LyhUuMpnCrvgTEw+4NrHDsHrAEU/T6UmwKvCpamMynJ
859NKWeWO5DlqLkBFTA/XvGVltK3irFYbm62gJJ6gQIDAQABo4IBrjCCAaowDgYD
VR0PAQH/BAQDAgeAMAkGA1UdEwQCMAAwEwYDVR0lBAwwCgYIKwYBBQUHAwEwHQYD
VR0OBBYEFHi2dS3CMMUm5UbSi2vLtw5wkGxUMB8GA1UdIwQYMBaAFOzw6lNTP58j
3MEOMRA3B97e527zMEUGCCsGAQUFBwEBBDkwNzA1BggrBgEFBQcwAoYpaHR0cDov
L3BraS5lc29kZW1vYXBwMi5jb20vY2Evcm9vdC1jYS5jZXIwOgYDVR0fBDMwMTAv
oC2gK4YpaHR0cDovL3BraS5lc29kZW1vYXBwMi5jb20vY2Evcm9vdC1jYS5jcmww
gbQGA1UdEQSBrDCBqYIRc2VydmVyLmRvbWFpbi5jb22CD2dycGMuZG9tYWluLmNv
bYIGYmUtc3J2giBiZS1zcnYuZGVmYXVsdC5zdmMuY2x1c3Rlci5sb2NhbIIJYmUt
c3J2LWxigiNiZS1zcnYtbGIuZGVmYXVsdC5zdmMuY2x1c3Rlci5sb2NhbIIPZ3Jw
Yy5kb21haW4uY29tghJncnBjd2ViLmRvbWFpbi5jb22HBH8AAAEwDQYJKoZIhvcN
AQELBQADggEBAFiCI1uxM36+qWFLCqF/Q4Acpsp6wpj3OGcgpAVgmvu3ynNwmPso
kknotfWl+OidXlvZXrK20/5KTFZp4UJh5I2Rbm3x9CkRxcKWSNRiLjRu67gzTh0F
m5fJ+4ve9EHRZgYQX6cIEi1qRVM5pbE0jb0QYV13HHci4VTV7o+ZtlaY3JppVqjA
4n6b15Ke+PCdLgcyrPooLlhagyp83/nkUb7ErNfYOlJy3kRIvAUys/J/eAnT98XT
vSXBRDS1Yl3MoCnCtubb0IkwQu5TBLzolpfWYXe/3dIRFbUys0YYX1q96ng3Q8l6
9gQHTLtePTgApS6MwybNVZUrJP8hw6cwMxs=
-----END CERTIFICATE-----
